; Function Attrs: nounwind uwtable
define hidden void @zif_phpdbg_break_method(ptr noundef readonly captures(none) %0, ptr readnone captures(none) %1) #0 {
  %3 = alloca ptr, align 8
  %4 = alloca ptr, align 8
  %5 = alloca i64, align 8
  %6 = alloca i64, align 8
  call void @llvm.lifetime.start.p0(i64 8, ptr nonnull %3) #27
  call void @llvm.lifetime.start.p0(i64 8, ptr nonnull %4) #27
  call void @llvm.lifetime.start.p0(i64 8, ptr nonnull %5) #27
  call void @llvm.lifetime.start.p0(i64 8, ptr nonnull %6) #27
  %7 = getelementptr inbounds nuw i8, ptr %0, i64 44
  %8 = load i32, ptr %7, align 4, !tbaa !4
  %9 = call i32 (i32, ptr, ...) @zend_parse_parameters(i32 noundef %8, ptr noundef nonnull @.str.4, ptr noundef nonnull %3, ptr noundef nonnull %5, ptr noundef nonnull %4, ptr noundef nonnull %6) #27
  %10 = icmp eq i32 %9, -1
  br i1 %10, label %11, label %14

11:                                               ; preds = %2
  %12 = load ptr, ptr getelementptr inbounds nuw (i8, ptr @executor_globals, i64 960), align 8, !tbaa !7
  %13 = icmp ne ptr %12, null
  call void @llvm.assume(i1 %13)
  br label %17

14:                                               ; preds = %2
  %15 = load ptr, ptr %3, align 8, !tbaa !78
  %16 = load ptr, ptr %4, align 8, !tbaa !78
  call void @phpdbg_set_breakpoint_method(ptr noundef %15, ptr noundef %16) #27
  br label %17

17:                                               ; preds = %14, %11
  call void @llvm.lifetime.end.p0(i64 8, ptr nonnull %6) #27
  call void @llvm.lifetime.end.p0(i64 8, ptr nonnull %5) #27
  call void @llvm.lifetime.end.p0(i64 8, ptr nonnull %4) #27
  call void @llvm.lifetime.end.p0(i64 8, ptr nonnull %3) #27
  ret void
}